target datalayout = "e-m:e-p270:32:32-p271:32:32-p272:64:64-i64:64-i128:128-f80:128-n8:16:32:64-S128"
target triple = "x86_64-pc-linux-gnu"

; Function Attrs: alwaysinline nounwind willreturn memory(none) uwtable
define internal i32 @av_clip_uintp2_c(i32 noundef %0, i32 noundef %1) #3 {
  %3 = alloca i32, align 4
  %4 = alloca i32, align 4
  %5 = alloca i32, align 4
  store i32 %0, ptr %4, align 4, !tbaa !9
  store i32 %1, ptr %5, align 4, !tbaa !9
  %6 = load i32, ptr %4, align 4, !tbaa !9
  %7 = load i32, ptr %5, align 4, !tbaa !9
  %8 = shl i32 1, %7
  %9 = sub i32 %8, 1
  %10 = xor i32 %9, -1
  %11 = and i32 %6, %10
  %12 = icmp ne i32 %11, 0
  br i1 %12, label %13, label %21

13:                                               ; preds = %2
  %14 = load i32, ptr %4, align 4, !tbaa !9
  %15 = xor i32 %14, -1
  %16 = ashr i32 %15, 31
  %17 = load i32, ptr %5, align 4, !tbaa !9
  %18 = shl i32 1, %17
  %19 = sub i32 %18, 1
  %20 = and i32 %16, %19
  store i32 %20, ptr %3, align 4
  br label %23

21:                                               ; preds = %2
  %22 = load i32, ptr %4, align 4, !tbaa !9
  store i32 %22, ptr %3, align 4
  br label %23

23:                                               ; preds = %21, %13
  %24 = load i32, ptr %3, align 4
  ret i32 %24
}

; Function Attrs: nounwind uwtable
define internal void @put_uni_luma_w_v_12(ptr noundef %0, i64 noundef %1, ptr noundef %2, i64 noundef %3, i32 noundef %4, i32 noundef %5, i32 noundef %6, i32 noundef %7, ptr noundef %8, ptr noundef %9, i32 noundef %10) #0 {
  %12 = alloca ptr, align 8
  %13 = alloca i64, align 8
  %14 = alloca ptr, align 8
  %15 = alloca i64, align 8
  %16 = alloca i32, align 4
  %17 = alloca i32, align 4
  %18 = alloca i32, align 4
  %19 = alloca i32, align 4
  %20 = alloca ptr, align 8
  %21 = alloca ptr, align 8
  %22 = alloca i32, align 4
  %23 = alloca ptr, align 8
  %24 = alloca ptr, align 8
  %25 = alloca i64, align 8
  %26 = alloca i64, align 8
  %27 = alloca ptr, align 8
  %28 = alloca i32, align 4
  %29 = alloca i32, align 4
  %30 = alloca i32, align 4
  %31 = alloca i32, align 4
  %32 = alloca i32, align 4
  %33 = alloca i32, align 4
  store ptr %0, ptr %12, align 8, !tbaa !144
  store i64 %1, ptr %13, align 8, !tbaa !146
  store ptr %2, ptr %14, align 8, !tbaa !144
  store i64 %3, ptr %15, align 8, !tbaa !146
  store i32 %4, ptr %16, align 4, !tbaa !9
  store i32 %5, ptr %17, align 4, !tbaa !9
  store i32 %6, ptr %18, align 4, !tbaa !9
  store i32 %7, ptr %19, align 4, !tbaa !9
  store ptr %8, ptr %20, align 8, !tbaa !144
  store ptr %9, ptr %21, align 8, !tbaa !144
  store i32 %10, ptr %22, align 4, !tbaa !9
  call void @llvm.lifetime.start.p0(i64 8, ptr %23) #8
  %34 = load ptr, ptr %14, align 8, !tbaa !144
  store ptr %34, ptr %23, align 8, !tbaa !142
  call void @llvm.lifetime.start.p0(i64 8, ptr %24) #8
  %35 = load ptr, ptr %12, align 8, !tbaa !144
  store ptr %35, ptr %24, align 8, !tbaa !142
  call void @llvm.lifetime.start.p0(i64 8, ptr %25) #8
  %36 = load i64, ptr %15, align 8, !tbaa !146
  %37 = udiv i64 %36, 2
  store i64 %37, ptr %25, align 8, !tbaa !146
  call void @llvm.lifetime.start.p0(i64 8, ptr %26) #8
  %38 = load i64, ptr %13, align 8, !tbaa !146
  %39 = udiv i64 %38, 2
  store i64 %39, ptr %26, align 8, !tbaa !146
  call void @llvm.lifetime.start.p0(i64 8, ptr %27) #8
  %40 = load ptr, ptr %21, align 8, !tbaa !144
  store ptr %40, ptr %27, align 8, !tbaa !144
  call void @llvm.lifetime.start.p0(i64 4, ptr %28) #8
  %41 = load i32, ptr %19, align 4, !tbaa !9
  %42 = mul nsw i32 %41, 16
  store i32 %42, ptr %28, align 4, !tbaa !9
  call void @llvm.lifetime.start.p0(i64 4, ptr %29) #8
  %43 = load i32, ptr %17, align 4, !tbaa !9
  %44 = add nsw i32 %43, 14
  %45 = sub nsw i32 %44, 12
  store i32 %45, ptr %29, align 4, !tbaa !9
  call void @llvm.lifetime.start.p0(i64 4, ptr %30) #8
  %46 = load i32, ptr %29, align 4, !tbaa !9
  %47 = sub nsw i32 %46, 1
  %48 = shl i32 1, %47
  store i32 %48, ptr %30, align 4, !tbaa !9
  call void @llvm.lifetime.start.p0(i64 4, ptr %31) #8
  store i32 0, ptr %31, align 4, !tbaa !9
  br label %49

49:                                               ; preds = %200, %11
  %50 = load i32, ptr %31, align 4, !tbaa !9
  %51 = load i32, ptr %16, align 4, !tbaa !9
  %52 = icmp slt i32 %50, %51
  br i1 %52, label %54, label %53

53:                                               ; preds = %49
  store i32 2, ptr %32, align 4
  call void @llvm.lifetime.end.p0(i64 4, ptr %31) #8
  br label %203

54:                                               ; preds = %49
  call void @llvm.lifetime.start.p0(i64 4, ptr %33) #8
  store i32 0, ptr %33, align 4, !tbaa !9
  br label %55

55:                                               ; preds = %190, %54
  %56 = load i32, ptr %33, align 4, !tbaa !9
  %57 = load i32, ptr %22, align 4, !tbaa !9
  %58 = icmp slt i32 %56, %57
  br i1 %58, label %60, label %59

59:                                               ; preds = %55
  store i32 5, ptr %32, align 4
  call void @llvm.lifetime.end.p0(i64 4, ptr %33) #8
  br label %193

60:                                               ; preds = %55
  %61 = load ptr, ptr %27, align 8, !tbaa !144
  %62 = getelementptr inbounds i8, ptr %61, i64 0
  %63 = load i8, ptr %62, align 1, !tbaa !152
  %64 = sext i8 %63 to i32
  %65 = load ptr, ptr %23, align 8, !tbaa !142
  %66 = load i32, ptr %33, align 4, !tbaa !9
  %67 = sext i32 %66 to i64
  %68 = load i64, ptr %25, align 8, !tbaa !146
  %69 = mul nsw i64 3, %68
  %70 = sub nsw i64 %67, %69
  %71 = getelementptr inbounds i16, ptr %65, i64 %70
  %72 = load i16, ptr %71, align 2, !tbaa !148
  %73 = zext i16 %72 to i32
  %74 = mul nsw i32 %64, %73
  %75 = load ptr, ptr %27, align 8, !tbaa !144
  %76 = getelementptr inbounds i8, ptr %75, i64 1
  %77 = load i8, ptr %76, align 1, !tbaa !152
  %78 = sext i8 %77 to i32
  %79 = load ptr, ptr %23, align 8, !tbaa !142
  %80 = load i32, ptr %33, align 4, !tbaa !9
  %81 = sext i32 %80 to i64
  %82 = load i64, ptr %25, align 8, !tbaa !146
  %83 = mul nsw i64 2, %82
  %84 = sub nsw i64 %81, %83
  %85 = getelementptr inbounds i16, ptr %79, i64 %84
  %86 = load i16, ptr %85, align 2, !tbaa !148
  %87 = zext i16 %86 to i32
  %88 = mul nsw i32 %78, %87
  %89 = add nsw i32 %74, %88
  %90 = load ptr, ptr %27, align 8, !tbaa !144
  %91 = getelementptr inbounds i8, ptr %90, i64 2
  %92 = load i8, ptr %91, align 1, !tbaa !152
  %93 = sext i8 %92 to i32
  %94 = load ptr, ptr %23, align 8, !tbaa !142
  %95 = load i32, ptr %33, align 4, !tbaa !9
  %96 = sext i32 %95 to i64
  %97 = load i64, ptr %25, align 8, !tbaa !146
  %98 = sub nsw i64 %96, %97
  %99 = getelementptr inbounds i16, ptr %94, i64 %98
  %100 = load i16, ptr %99, align 2, !tbaa !148
  %101 = zext i16 %100 to i32
  %102 = mul nsw i32 %93, %101
  %103 = add nsw i32 %89, %102
  %104 = load ptr, ptr %27, align 8, !tbaa !144
  %105 = getelementptr inbounds i8, ptr %104, i64 3
  %106 = load i8, ptr %105, align 1, !tbaa !152
  %107 = sext i8 %106 to i32
  %108 = load ptr, ptr %23, align 8, !tbaa !142
  %109 = load i32, ptr %33, align 4, !tbaa !9
  %110 = sext i32 %109 to i64
  %111 = getelementptr inbounds i16, ptr %108, i64 %110
  %112 = load i16, ptr %111, align 2, !tbaa !148
  %113 = zext i16 %112 to i32
  %114 = mul nsw i32 %107, %113
  %115 = add nsw i32 %103, %114
  %116 = load ptr, ptr %27, align 8, !tbaa !144
  %117 = getelementptr inbounds i8, ptr %116, i64 4
  %118 = load i8, ptr %117, align 1, !tbaa !152
  %119 = sext i8 %118 to i32
  %120 = load ptr, ptr %23, align 8, !tbaa !142
  %121 = load i32, ptr %33, align 4, !tbaa !9
  %122 = sext i32 %121 to i64
  %123 = load i64, ptr %25, align 8, !tbaa !146
  %124 = add nsw i64 %122, %123
  %125 = getelementptr inbounds i16, ptr %120, i64 %124
  %126 = load i16, ptr %125, align 2, !tbaa !148
  %127 = zext i16 %126 to i32
  %128 = mul nsw i32 %119, %127
  %129 = add nsw i32 %115, %128
  %130 = load ptr, ptr %27, align 8, !tbaa !144
  %131 = getelementptr inbounds i8, ptr %130, i64 5
  %132 = load i8, ptr %131, align 1, !tbaa !152
  %133 = sext i8 %132 to i32
  %134 = load ptr, ptr %23, align 8, !tbaa !142
  %135 = load i32, ptr %33, align 4, !tbaa !9
  %136 = sext i32 %135 to i64
  %137 = load i64, ptr %25, align 8, !tbaa !146
  %138 = mul nsw i64 2, %137
  %139 = add nsw i64 %136, %138
  %140 = getelementptr inbounds i16, ptr %134, i64 %139
  %141 = load i16, ptr %140, align 2, !tbaa !148
  %142 = zext i16 %141 to i32
  %143 = mul nsw i32 %133, %142
  %144 = add nsw i32 %129, %143
  %145 = load ptr, ptr %27, align 8, !tbaa !144
  %146 = getelementptr inbounds i8, ptr %145, i64 6
  %147 = load i8, ptr %146, align 1, !tbaa !152
  %148 = sext i8 %147 to i32
  %149 = load ptr, ptr %23, align 8, !tbaa !142
  %150 = load i32, ptr %33, align 4, !tbaa !9
  %151 = sext i32 %150 to i64
  %152 = load i64, ptr %25, align 8, !tbaa !146
  %153 = mul nsw i64 3, %152
  %154 = add nsw i64 %151, %153
  %155 = getelementptr inbounds i16, ptr %149, i64 %154
  %156 = load i16, ptr %155, align 2, !tbaa !148
  %157 = zext i16 %156 to i32
  %158 = mul nsw i32 %148, %157
  %159 = add nsw i32 %144, %158
  %160 = load ptr, ptr %27, align 8, !tbaa !144
  %161 = getelementptr inbounds i8, ptr %160, i64 7
  %162 = load i8, ptr %161, align 1, !tbaa !152
  %163 = sext i8 %162 to i32
  %164 = load ptr, ptr %23, align 8, !tbaa !142
  %165 = load i32, ptr %33, align 4, !tbaa !9
  %166 = sext i32 %165 to i64
  %167 = load i64, ptr %25, align 8, !tbaa !146
  %168 = mul nsw i64 4, %167
  %169 = add nsw i64 %166, %168
  %170 = getelementptr inbounds i16, ptr %164, i64 %169
  %171 = load i16, ptr %170, align 2, !tbaa !148
  %172 = zext i16 %171 to i32
  %173 = mul nsw i32 %163, %172
  %174 = add nsw i32 %159, %173
  %175 = ashr i32 %174, 4
  %176 = load i32, ptr %18, align 4, !tbaa !9
  %177 = mul nsw i32 %175, %176
  %178 = load i32, ptr %30, align 4, !tbaa !9
  %179 = add nsw i32 %177, %178
  %180 = load i32, ptr %29, align 4, !tbaa !9
  %181 = ashr i32 %179, %180
  %182 = load i32, ptr %28, align 4, !tbaa !9
  %183 = add nsw i32 %181, %182
  %184 = call i32 @av_clip_uintp2_c(i32 noundef %183, i32 noundef 12) #9
  %185 = trunc i32 %184 to i16
  %186 = load ptr, ptr %24, align 8, !tbaa !142
  %187 = load i32, ptr %33, align 4, !tbaa !9
  %188 = sext i32 %187 to i64
  %189 = getelementptr inbounds i16, ptr %186, i64 %188
  store i16 %185, ptr %189, align 2, !tbaa !148
  br label %190

190:                                              ; preds = %60
  %191 = load i32, ptr %33, align 4, !tbaa !9
  %192 = add nsw i32 %191, 1
  store i32 %192, ptr %33, align 4, !tbaa !9
  br label %55, !llvm.loop !174

193:                                              ; preds = %59
  %194 = load i64, ptr %25, align 8, !tbaa !146
  %195 = load ptr, ptr %23, align 8, !tbaa !142
  %196 = getelementptr inbounds i16, ptr %195, i64 %194
  store ptr %196, ptr %23, align 8, !tbaa !142
  %197 = load i64, ptr %26, align 8, !tbaa !146
  %198 = load ptr, ptr %24, align 8, !tbaa !142
  %199 = getelementptr inbounds i16, ptr %198, i64 %197
  store ptr %199, ptr %24, align 8, !tbaa !142
  br label %200

200:                                              ; preds = %193
  %201 = load i32, ptr %31, align 4, !tbaa !9
  %202 = add nsw i32 %201, 1
  store i32 %202, ptr %31, align 4, !tbaa !9
  br label %49, !llvm.loop !175

203:                                              ; preds = %53
  call void @llvm.lifetime.end.p0(i64 4, ptr %30) #8
  call void @llvm.lifetime.end.p0(i64 4, ptr %29) #8
  call void @llvm.lifetime.end.p0(i64 4, ptr %28) #8
  call void @llvm.lifetime.end.p0(i64 8, ptr %27) #8
  call void @llvm.lifetime.end.p0(i64 8, ptr %26) #8
  call void @llvm.lifetime.end.p0(i64 8, ptr %25) #8
  call void @llvm.lifetime.end.p0(i64 8, ptr %24) #8
  call void @llvm.lifetime.end.p0(i64 8, ptr %23) #8
  ret void
}