; Function Attrs: nofree norecurse nosync nounwind memory(argmem: readwrite) uwtable
define internal void @put_uni_luma_w_v_12(ptr noundef writeonly captures(none) %0, i64 noundef %1, ptr noundef readonly captures(none) %2, i64 noundef %3, i32 noundef %4, i32 noundef %5, i32 noundef %6, i32 noundef %7, ptr readnone captures(none) %8, ptr noundef readonly captures(none) %9, i32 noundef %10) #2 {
  %12 = lshr i64 %3, 1
  %13 = lshr i64 %1, 1
  %14 = shl nsw i32 %7, 4
  %15 = add nsw i32 %5, 2
  %16 = add nsw i32 %5, 1
  %17 = shl nuw i32 1, %16
  %18 = icmp sgt i32 %4, 0
  br i1 %18, label %.preheader.lr.ph, label %._crit_edge61

.preheader.lr.ph:                                 ; preds = %11
  %19 = icmp sgt i32 %10, 0
  %20 = mul nuw nsw i64 %12, 3
  %21 = getelementptr inbounds nuw i8, ptr %9, i64 1
  %22 = and i64 %3, -2
  %23 = getelementptr inbounds nuw i8, ptr %9, i64 2
  %24 = getelementptr inbounds nuw i8, ptr %9, i64 3
  %25 = getelementptr inbounds nuw i8, ptr %9, i64 4
  %26 = getelementptr inbounds nuw i8, ptr %9, i64 5
  %27 = getelementptr inbounds nuw i8, ptr %9, i64 6
  %28 = getelementptr inbounds nuw i8, ptr %9, i64 7
  %.idx = shl nsw i64 %12, 3
  br i1 %19, label %.preheader.us.preheader, label %._crit_edge61

.preheader.us.preheader:                          ; preds = %.preheader.lr.ph
  %wide.trip.count = zext nneg i32 %10 to i64
  br label %.preheader.us

.preheader.us:                                    ; preds = %.preheader.us.preheader, %._crit_edge.us
  %.05460.us = phi i32 [ %102, %._crit_edge.us ], [ 0, %.preheader.us.preheader ]
  %.05559.us = phi ptr [ %29, %._crit_edge.us ], [ %2, %.preheader.us.preheader ]
  %.05658.us = phi ptr [ %101, %._crit_edge.us ], [ %0, %.preheader.us.preheader ]
  %29 = getelementptr inbounds nuw i16, ptr %.05559.us, i64 %12
  %30 = getelementptr i16, ptr %.05559.us, i64 %22
  %31 = getelementptr inbounds nuw i16, ptr %.05559.us, i64 %20
  %32 = getelementptr inbounds nuw i8, ptr %.05559.us, i64 %.idx
  br label %33

33:                                               ; preds = %.preheader.us, %33
  %indvars.iv = phi i64 [ 0, %.preheader.us ], [ %indvars.iv.next, %33 ]
  %34 = load i8, ptr %9, align 1, !tbaa !128
  %35 = sext i8 %34 to i32
  %36 = sub nsw i64 %indvars.iv, %20
  %37 = getelementptr inbounds i16, ptr %.05559.us, i64 %36
  %38 = load i16, ptr %37, align 2, !tbaa !124
  %39 = zext i16 %38 to i32
  %40 = mul nsw i32 %39, %35
  %41 = load i8, ptr %21, align 1, !tbaa !128
  %42 = sext i8 %41 to i32
  %43 = sub nsw i64 %indvars.iv, %22
  %44 = getelementptr inbounds i16, ptr %.05559.us, i64 %43
  %45 = load i16, ptr %44, align 2, !tbaa !124
  %46 = zext i16 %45 to i32
  %47 = mul nsw i32 %46, %42
  %48 = add nsw i32 %47, %40
  %49 = load i8, ptr %23, align 1, !tbaa !128
  %50 = sext i8 %49 to i32
  %51 = sub nsw i64 %indvars.iv, %12
  %52 = getelementptr inbounds i16, ptr %.05559.us, i64 %51
  %53 = load i16, ptr %52, align 2, !tbaa !124
  %54 = zext i16 %53 to i32
  %55 = mul nsw i32 %54, %50
  %56 = add nsw i32 %48, %55
  %57 = load i8, ptr %24, align 1, !tbaa !128
  %58 = sext i8 %57 to i32
  %59 = getelementptr inbounds nuw i16, ptr %.05559.us, i64 %indvars.iv
  %60 = load i16, ptr %59, align 2, !tbaa !124
  %61 = zext i16 %60 to i32
  %62 = mul nsw i32 %61, %58
  %63 = add nsw i32 %56, %62
  %64 = load i8, ptr %25, align 1, !tbaa !128
  %65 = sext i8 %64 to i32
  %66 = getelementptr inbounds nuw i16, ptr %29, i64 %indvars.iv
  %67 = load i16, ptr %66, align 2, !tbaa !124
  %68 = zext i16 %67 to i32
  %69 = mul nsw i32 %68, %65
  %70 = add nsw i32 %63, %69
  %71 = load i8, ptr %26, align 1, !tbaa !128
  %72 = sext i8 %71 to i32
  %73 = getelementptr i16, ptr %30, i64 %indvars.iv
  %74 = load i16, ptr %73, align 2, !tbaa !124
  %75 = zext i16 %74 to i32
  %76 = mul nsw i32 %75, %72
  %77 = add nsw i32 %70, %76
  %78 = load i8, ptr %27, align 1, !tbaa !128
  %79 = sext i8 %78 to i32
  %80 = getelementptr inbounds nuw i16, ptr %31, i64 %indvars.iv
  %81 = load i16, ptr %80, align 2, !tbaa !124
  %82 = zext i16 %81 to i32
  %83 = mul nsw i32 %82, %79
  %84 = add nsw i32 %77, %83
  %85 = load i8, ptr %28, align 1, !tbaa !128
  %86 = sext i8 %85 to i32
  %87 = getelementptr inbounds nuw i16, ptr %32, i64 %indvars.iv
  %88 = load i16, ptr %87, align 2, !tbaa !124
  %89 = zext i16 %88 to i32
  %90 = mul nsw i32 %89, %86
  %91 = add nsw i32 %84, %90
  %92 = ashr i32 %91, 4
  %93 = mul nsw i32 %92, %6
  %94 = add nsw i32 %93, %17
  %95 = ashr i32 %94, %15
  %96 = add nsw i32 %95, %14
  %97 = tail call i32 @llvm.smax.i32(i32 %96, i32 0)
  %98 = tail call i32 @llvm.umin.i32(i32 %97, i32 4095)
  %99 = trunc nuw nsw i32 %98 to i16
  %100 = getelementptr inbounds nuw i16, ptr %.05658.us, i64 %indvars.iv
  store i16 %99, ptr %100, align 2, !tbaa !124
  %indvars.iv.next = add nuw nsw i64 %indvars.iv, 1
  %exitcond.not = icmp eq i64 %indvars.iv.next, %wide.trip.count
  br i1 %exitcond.not, label %._crit_edge.us, label %33, !llvm.loop !150

._crit_edge.us:                                   ; preds = %33
  %101 = getelementptr inbounds nuw i16, ptr %.05658.us, i64 %13
  %102 = add nuw nsw i32 %.05460.us, 1
  %exitcond64.not = icmp eq i32 %102, %4
  br i1 %exitcond64.not, label %._crit_edge61, label %.preheader.us, !llvm.loop !151

._crit_edge61:                                    ; preds = %._crit_edge.us, %.preheader.lr.ph, %11
  ret void
}